; Function Attrs: mustprogress uwtable
define hidden void @_ZNK2cv9MatOp_Bin8multiplyERKNS_7MatExprEdRS1_(ptr nocapture nonnull readnone align 8 %0, ptr noundef nonnull align 8 dereferenceable(352) %1, double noundef %2, ptr noundef nonnull align 8 dereferenceable(352) %3) unnamed_addr #8 align 2 personality ptr @__gxx_personality_v0 {
  %5 = alloca %"class.cv::utils::trace::details::Region", align 8
  call void @_ZN2cv5utils5trace7details6RegionC1ERKNS3_21LocationStaticStorageE(ptr noundef nonnull align 8 dereferenceable(12) %5, ptr noundef nonnull align 8 dereferenceable(32) @_ZZNK2cv9MatOp_Bin8multiplyERKNS_7MatExprEdRS1_E26__cv_trace_location_fn1467)
  %6 = getelementptr inbounds i8, ptr %1, i64 8
  %7 = load i32, ptr %6, align 8
  switch i32 %7, label %37 [
    i32 42, label %8
    i32 47, label %8
  ]

8:                                                ; preds = %4, %4
  call void @llvm.memcpy.p0.p0.i64(ptr noundef nonnull align 8 dereferenceable(12) %3, ptr noundef nonnull align 8 dereferenceable(12) %1, i64 12, i1 false)
  %9 = getelementptr inbounds i8, ptr %3, i64 16
  %10 = getelementptr inbounds i8, ptr %1, i64 16
  %11 = invoke noundef nonnull align 8 dereferenceable(96) ptr @_ZN2cv3MataSERKS0_(ptr noundef nonnull align 8 dereferenceable(96) %9, ptr noundef nonnull align 8 dereferenceable(96) %10)
          to label %.noexc unwind label %35

.noexc:                                           ; preds = %8
  %12 = getelementptr inbounds i8, ptr %3, i64 112
  %13 = getelementptr inbounds i8, ptr %1, i64 112
  %14 = invoke noundef nonnull align 8 dereferenceable(96) ptr @_ZN2cv3MataSERKS0_(ptr noundef nonnull align 8 dereferenceable(96) %12, ptr noundef nonnull align 8 dereferenceable(96) %13)
          to label %.noexc11 unwind label %35

.noexc11:                                         ; preds = %.noexc
  %15 = getelementptr inbounds i8, ptr %3, i64 208
  %16 = getelementptr inbounds i8, ptr %1, i64 208
  %17 = invoke noundef nonnull align 8 dereferenceable(96) ptr @_ZN2cv3MataSERKS0_(ptr noundef nonnull align 8 dereferenceable(96) %15, ptr noundef nonnull align 8 dereferenceable(96) %16)
          to label %18 unwind label %35

18:                                               ; preds = %.noexc11
  %19 = getelementptr inbounds i8, ptr %3, i64 304
  %20 = getelementptr inbounds i8, ptr %1, i64 304
  call void @llvm.memcpy.p0.p0.i64(ptr noundef nonnull align 8 dereferenceable(16) %19, ptr noundef nonnull align 8 dereferenceable(16) %20, i64 16, i1 false)
  %21 = getelementptr inbounds i8, ptr %3, i64 320
  %22 = getelementptr inbounds i8, ptr %1, i64 320
  %23 = load double, ptr %22, align 8
  store double %23, ptr %21, align 8
  %24 = getelementptr inbounds i8, ptr %1, i64 328
  %25 = load double, ptr %24, align 8
  %26 = getelementptr inbounds i8, ptr %3, i64 328
  store double %25, ptr %26, align 8
  %27 = getelementptr inbounds i8, ptr %1, i64 336
  %28 = load double, ptr %27, align 8
  %29 = getelementptr inbounds i8, ptr %3, i64 336
  store double %28, ptr %29, align 8
  %30 = getelementptr inbounds i8, ptr %1, i64 344
  %31 = load double, ptr %30, align 8
  %32 = getelementptr inbounds i8, ptr %3, i64 344
  store double %31, ptr %32, align 8
  %33 = load double, ptr %19, align 8
  %34 = fmul double %33, %2
  store double %34, ptr %19, align 8
  br label %38

35:                                               ; preds = %.noexc11, %.noexc, %8, %37
  %36 = landingpad { ptr, i32 }
          cleanup
  call void @_ZN2cv5utils5trace7details6RegionD2Ev(ptr noundef nonnull align 8 dereferenceable(12) %5) #21
  resume { ptr, i32 } %36

37:                                               ; preds = %4
  invoke void @_ZNK2cv5MatOp8multiplyERKNS_7MatExprEdRS1_(ptr nonnull align 8 poison, ptr noundef nonnull align 8 dereferenceable(352) %1, double noundef %2, ptr noundef nonnull align 8 dereferenceable(352) %3)
          to label %38 unwind label %35

38:                                               ; preds = %37, %18
  %39 = getelementptr inbounds i8, ptr %5, i64 8
  %40 = load i32, ptr %39, align 8
  %.not.i = icmp eq i32 %40, 0
  br i1 %.not.i, label %_ZN2cv5utils5trace7details6RegionD2Ev.exit, label %41

41:                                               ; preds = %38
  invoke void @_ZN2cv5utils5trace7details6Region7destroyEv(ptr noundef nonnull align 8 dereferenceable(12) %5)
          to label %_ZN2cv5utils5trace7details6RegionD2Ev.exit unwind label %42

42:                                               ; preds = %41
  %43 = landingpad { ptr, i32 }
          catch ptr null
  %44 = extractvalue { ptr, i32 } %43, 0
  call void @__clang_call_terminate(ptr %44) #20
  unreachable

_ZN2cv5utils5trace7details6RegionD2Ev.exit:       ; preds = %38, %41
  ret void
}